target datalayout = "e-m:e-p270:32:32-p271:32:32-p272:64:64-i64:64-i128:128-f80:128-n8:16:32:64-S128"
target triple = "x86_64-pc-linux-gnu"

%struct._object = type { %union.anon, ptr }
%union.anon = type { i64 }
%struct._longobject = type { %struct._object, %struct._PyLongValue }
%struct._PyLongValue = type { i64, [1 x i32] }
%struct._typeobject = type { %struct.PyVarObject, ptr, i64, i64, ptr, i64, ptr, ptr, ptr, ptr, ptr, ptr, ptr, ptr, ptr, ptr, ptr, ptr, ptr, i64, ptr, ptr, ptr, ptr, i64, ptr, ptr, ptr, ptr, ptr, ptr, ptr, ptr, ptr, i64, ptr, ptr, ptr, ptr, ptr, ptr, ptr, ptr, ptr, ptr, ptr, i32, ptr, ptr, i8, i16 }
%struct.PyVarObject = type { %struct._object, i64 }
%struct.anon.0 = type { i32, i32 }

@.str.107 = private unnamed_addr constant [19 x i8] c"complete_statement\00", align 1
@.str.114 = private unnamed_addr constant [21 x i8] c"argument 'statement'\00", align 1
@.str.115 = private unnamed_addr constant [4 x i8] c"str\00", align 1
@PyExc_ValueError = external global ptr, align 8
@.str.116 = private unnamed_addr constant [24 x i8] c"embedded null character\00", align 1
@_Py_TrueStruct = external global %struct._longobject, align 8
@_Py_FalseStruct = external global %struct._longobject, align 8

; Function Attrs: alwaysinline nounwind uwtable
define internal void @Py_INCREF(ptr noundef %0) #5 {
  %2 = alloca ptr, align 8
  %3 = alloca i32, align 4
  %4 = alloca i32, align 4
  store ptr %0, ptr %2, align 8, !tbaa !15
  call void @llvm.lifetime.start.p0(i64 4, ptr %3) #6
  %5 = load ptr, ptr %2, align 8, !tbaa !15
  %6 = getelementptr inbounds nuw %struct._object, ptr %5, i32 0, i32 0
  %7 = getelementptr inbounds nuw %struct.anon.0, ptr %6, i32 0, i32 0
  %8 = load i32, ptr %7, align 8, !tbaa !56
  store i32 %8, ptr %3, align 4, !tbaa !3
  %9 = load i32, ptr %3, align 4, !tbaa !3
  %10 = icmp slt i32 %9, 0
  br i1 %10, label %11, label %12

11:                                               ; preds = %1
  store i32 1, ptr %4, align 4
  br label %18

12:                                               ; preds = %1
  %13 = load i32, ptr %3, align 4, !tbaa !3
  %14 = add i32 %13, 1
  %15 = load ptr, ptr %2, align 8, !tbaa !15
  %16 = getelementptr inbounds nuw %struct._object, ptr %15, i32 0, i32 0
  %17 = getelementptr inbounds nuw %struct.anon.0, ptr %16, i32 0, i32 0
  store i32 %14, ptr %17, align 8, !tbaa !56
  store i32 0, ptr %4, align 4
  br label %18

18:                                               ; preds = %12, %11
  call void @llvm.lifetime.end.p0(i64 4, ptr %3) #6
  %19 = load i32, ptr %4, align 4
  switch i32 %19, label %21 [
    i32 0, label %20
    i32 1, label %20
  ]

20:                                               ; preds = %18, %18
  ret void

21:                                               ; preds = %18
  unreachable
}

; Function Attrs: inlinehint nounwind uwtable
define internal ptr @_Py_NewRef(ptr noundef %0) #3 {
  %2 = alloca ptr, align 8
  store ptr %0, ptr %2, align 8, !tbaa !15
  %3 = load ptr, ptr %2, align 8, !tbaa !15
  call void @Py_INCREF(ptr noundef %3)
  %4 = load ptr, ptr %2, align 8, !tbaa !15
  ret ptr %4
}

; Function Attrs: nounwind uwtable
define internal ptr @pysqlite_complete_statement_impl(ptr noundef %0, ptr noundef %1) #0 {
  %3 = alloca ptr, align 8
  %4 = alloca ptr, align 8
  %5 = alloca ptr, align 8
  store ptr %0, ptr %4, align 8, !tbaa !15
  store ptr %1, ptr %5, align 8, !tbaa !45
  %6 = load ptr, ptr %5, align 8, !tbaa !45
  %7 = call i32 @sqlite3_complete(ptr noundef %6)
  %8 = icmp ne i32 %7, 0
  br i1 %8, label %9, label %11

9:                                                ; preds = %2
  %10 = call ptr @_Py_NewRef(ptr noundef @_Py_TrueStruct)
  store ptr %10, ptr %3, align 8
  br label %13

11:                                               ; preds = %2
  %12 = call ptr @_Py_NewRef(ptr noundef @_Py_FalseStruct)
  store ptr %12, ptr %3, align 8
  br label %13

13:                                               ; preds = %11, %9
  %14 = load ptr, ptr %3, align 8
  ret ptr %14
}

; Function Attrs: inlinehint nounwind uwtable
define internal i32 @PyType_HasFeature(ptr noundef %0, i64 noundef %1) #3 {
  %3 = alloca ptr, align 8
  %4 = alloca i64, align 8
  %5 = alloca i64, align 8
  store ptr %0, ptr %3, align 8, !tbaa !43
  store i64 %1, ptr %4, align 8, !tbaa !44
  call void @llvm.lifetime.start.p0(i64 8, ptr %5) #6
  %6 = load ptr, ptr %3, align 8, !tbaa !43
  %7 = getelementptr inbounds nuw %struct._typeobject, ptr %6, i32 0, i32 19
  %8 = load i64, ptr %7, align 8, !tbaa !47
  store i64 %8, ptr %5, align 8, !tbaa !44
  %9 = load i64, ptr %5, align 8, !tbaa !44
  %10 = load i64, ptr %4, align 8, !tbaa !44
  %11 = and i64 %9, %10
  %12 = icmp ne i64 %11, 0
  %13 = zext i1 %12 to i32
  call void @llvm.lifetime.end.p0(i64 8, ptr %5) #6
  ret i32 %13
}

; Function Attrs: inlinehint nounwind uwtable
define internal ptr @_Py_TYPE(ptr noundef %0) #3 {
  %2 = alloca ptr, align 8
  store ptr %0, ptr %2, align 8, !tbaa !15
  %3 = load ptr, ptr %2, align 8, !tbaa !15
  %4 = getelementptr inbounds nuw %struct._object, ptr %3, i32 0, i32 1
  %5 = load ptr, ptr %4, align 8, !tbaa !55
  ret ptr %5
}

; Function Attrs: nounwind uwtable
define internal ptr @pysqlite_complete_statement(ptr noundef %0, ptr noundef %1, i64 noundef %2, ptr noundef %3) #0 {
  %5 = alloca ptr, align 8
  %6 = alloca ptr, align 8
  %7 = alloca i64, align 8
  %8 = alloca ptr, align 8
  %9 = alloca ptr, align 8
  %10 = alloca [1 x ptr], align 8
  %11 = alloca ptr, align 8
  %12 = alloca i64, align 8
  store ptr %0, ptr %5, align 8, !tbaa !15
  store ptr %1, ptr %6, align 8, !tbaa !39
  store i64 %2, ptr %7, align 8, !tbaa !44
  store ptr %3, ptr %8, align 8, !tbaa !15
  call void @llvm.lifetime.start.p0(i64 8, ptr %9) #6
  store ptr null, ptr %9, align 8, !tbaa !15
  call void @llvm.lifetime.start.p0(i64 8, ptr %10) #6
  call void @llvm.lifetime.start.p0(i64 8, ptr %11) #6
  %13 = load ptr, ptr %8, align 8, !tbaa !15
  %14 = icmp eq ptr %13, null
  br i1 %14, label %15, label %26

15:                                               ; preds = %4
  %16 = load i64, ptr %7, align 8, !tbaa !44
  %17 = icmp sle i64 1, %16
  br i1 %17, label %18, label %26

18:                                               ; preds = %15
  %19 = load i64, ptr %7, align 8, !tbaa !44
  %20 = icmp sle i64 %19, 1
  br i1 %20, label %21, label %26

21:                                               ; preds = %18
  %22 = load ptr, ptr %6, align 8, !tbaa !39
  %23 = icmp ne ptr %22, null
  br i1 %23, label %24, label %26

24:                                               ; preds = %21
  %25 = load ptr, ptr %6, align 8, !tbaa !39
  br label %32

26:                                               ; preds = %21, %18, %15, %4
  %27 = load ptr, ptr %6, align 8, !tbaa !39
  %28 = load i64, ptr %7, align 8, !tbaa !44
  %29 = load ptr, ptr %8, align 8, !tbaa !15
  %30 = getelementptr inbounds [1 x ptr], ptr %10, i64 0, i64 0
  %31 = call ptr @_PyArg_UnpackKeywords(ptr noundef %27, i64 noundef %28, ptr noundef null, ptr noundef %29, ptr noundef @pysqlite_complete_statement._parser, i32 noundef 1, i32 noundef 1, i32 noundef 0, i32 noundef 0, ptr noundef %30)
  br label %32

32:                                               ; preds = %26, %24
  %33 = phi ptr [ %25, %24 ], [ %31, %26 ]
  store ptr %33, ptr %6, align 8, !tbaa !39
  %34 = load ptr, ptr %6, align 8, !tbaa !39
  %35 = icmp ne ptr %34, null
  br i1 %35, label %37, label %36

36:                                               ; preds = %32
  br label %67

37:                                               ; preds = %32
  %38 = load ptr, ptr %6, align 8, !tbaa !39
  %39 = getelementptr ptr, ptr %38, i64 0
  %40 = load ptr, ptr %39, align 8, !tbaa !15
  %41 = call ptr @_Py_TYPE(ptr noundef %40)
  %42 = call i32 @PyType_HasFeature(ptr noundef %41, i64 noundef 268435456)
  %43 = icmp ne i32 %42, 0
  br i1 %43, label %48, label %44

44:                                               ; preds = %37
  %45 = load ptr, ptr %6, align 8, !tbaa !39
  %46 = getelementptr ptr, ptr %45, i64 0
  %47 = load ptr, ptr %46, align 8, !tbaa !15
  call void @_PyArg_BadArgument(ptr noundef @.str.107, ptr noundef @.str.114, ptr noundef @.str.115, ptr noundef %47)
  br label %67

48:                                               ; preds = %37
  %49 = load ptr, ptr %6, align 8, !tbaa !39
  %50 = getelementptr ptr, ptr %49, i64 0
  %51 = load ptr, ptr %50, align 8, !tbaa !15
  %52 = call ptr @PyUnicode_AsUTF8AndSize(ptr noundef %51, ptr noundef %12)
  store ptr %52, ptr %11, align 8, !tbaa !45
  %53 = load ptr, ptr %11, align 8, !tbaa !45
  %54 = icmp eq ptr %53, null
  br i1 %54, label %55, label %56

55:                                               ; preds = %48
  br label %67

56:                                               ; preds = %48
  %57 = load ptr, ptr %11, align 8, !tbaa !45
  %58 = call i64 @strlen(ptr noundef %57) #7
  %59 = load i64, ptr %12, align 8, !tbaa !44
  %60 = icmp ne i64 %58, %59
  br i1 %60, label %61, label %63

61:                                               ; preds = %56
  %62 = load ptr, ptr @PyExc_ValueError, align 8, !tbaa !15
  call void @PyErr_SetString(ptr noundef %62, ptr noundef @.str.116)
  br label %67

63:                                               ; preds = %56
  %64 = load ptr, ptr %5, align 8, !tbaa !15
  %65 = load ptr, ptr %11, align 8, !tbaa !45
  %66 = call ptr @pysqlite_complete_statement_impl(ptr noundef %64, ptr noundef %65)
  store ptr %66, ptr %9, align 8, !tbaa !15
  br label %67

67:                                               ; preds = %63, %61, %55, %44, %36
  %68 = load ptr, ptr %9, align 8, !tbaa !15
  call void @llvm.lifetime.end.p0(i64 8, ptr %11) #6
  call void @llvm.lifetime.end.p0(i64 8, ptr %10) #6
  call void @llvm.lifetime.end.p0(i64 8, ptr %9) #6
  ret ptr %68
}