; Function Attrs: nounwind uwtable
define internal noundef ptr @pysqlite_complete_statement(ptr readnone captures(none) %0, ptr noundef %1, i64 noundef %2, ptr noundef %3) #2 {
  %5 = alloca [1 x ptr], align 8
  %6 = alloca i64, align 8
  call void @llvm.lifetime.start.p0(i64 8, ptr nonnull %5) #5
  %7 = icmp eq ptr %3, null
  %8 = icmp eq i64 %2, 1
  %or.cond3 = and i1 %8, %7
  %9 = icmp ne ptr %1, null
  %or.cond5 = and i1 %9, %or.cond3
  br i1 %or.cond5, label %.thread, label %10

10:                                               ; preds = %4
  %11 = call ptr @_PyArg_UnpackKeywords(ptr noundef %1, i64 noundef %2, ptr noundef null, ptr noundef %3, ptr noundef nonnull @pysqlite_complete_statement._parser, i32 noundef 1, i32 noundef 1, i32 noundef 0, i32 noundef 0, ptr noundef nonnull %5) #5
  %.not = icmp eq ptr %11, null
  br i1 %.not, label %pysqlite_complete_statement_impl.exit, label %.thread

.thread:                                          ; preds = %4, %10
  %12 = phi ptr [ %11, %10 ], [ %1, %4 ]
  %13 = load ptr, ptr %12, align 8, !tbaa !36
  %14 = getelementptr i8, ptr %13, i64 8
  %.val = load ptr, ptr %14, align 8, !tbaa !39
  %15 = getelementptr i8, ptr %.val, i64 168
  %.val26 = load i64, ptr %15, align 8, !tbaa !41
  %16 = and i64 %.val26, 268435456
  %.not24 = icmp eq i64 %16, 0
  br i1 %.not24, label %17, label %18

17:                                               ; preds = %.thread
  call void @_PyArg_BadArgument(ptr noundef nonnull @.str.107, ptr noundef nonnull @.str.114, ptr noundef nonnull @.str.115, ptr noundef nonnull %13) #5
  br label %pysqlite_complete_statement_impl.exit

18:                                               ; preds = %.thread
  %19 = call ptr @PyUnicode_AsUTF8AndSize(ptr noundef nonnull %13, ptr noundef nonnull %6) #5
  %20 = icmp eq ptr %19, null
  br i1 %20, label %pysqlite_complete_statement_impl.exit, label %21

21:                                               ; preds = %18
  %22 = call i64 @strlen(ptr noundef nonnull dereferenceable(1) %19) #6
  %23 = load i64, ptr %6, align 8, !tbaa !48
  %.not25 = icmp eq i64 %22, %23
  br i1 %.not25, label %26, label %24

24:                                               ; preds = %21
  %25 = load ptr, ptr @PyExc_ValueError, align 8, !tbaa !36
  call void @PyErr_SetString(ptr noundef %25, ptr noundef nonnull @.str.116) #5
  br label %pysqlite_complete_statement_impl.exit

26:                                               ; preds = %21
  %27 = call i32 @sqlite3_complete(ptr noundef nonnull %19) #5
  %.not.i = icmp eq i32 %27, 0
  br i1 %.not.i, label %31, label %28

28:                                               ; preds = %26
  %29 = load i32, ptr @_Py_TrueStruct, align 8, !tbaa !37
  %30 = icmp slt i32 %29, 0
  br i1 %30, label %pysqlite_complete_statement_impl.exit, label %_Py_NewRef.exit.sink.split.i

31:                                               ; preds = %26
  %32 = load i32, ptr @_Py_FalseStruct, align 8, !tbaa !37
  %33 = icmp slt i32 %32, 0
  br i1 %33, label %pysqlite_complete_statement_impl.exit, label %_Py_NewRef.exit.sink.split.i

_Py_NewRef.exit.sink.split.i:                     ; preds = %31, %28
  %.sink1.i = phi i32 [ %29, %28 ], [ %32, %31 ]
  %_Py_FalseStruct.sink.i = phi ptr [ @_Py_TrueStruct, %28 ], [ @_Py_FalseStruct, %31 ]
  %34 = add nuw i32 %.sink1.i, 1
  store i32 %34, ptr %_Py_FalseStruct.sink.i, align 8, !tbaa !37
  br label %pysqlite_complete_statement_impl.exit

pysqlite_complete_statement_impl.exit:            ; preds = %_Py_NewRef.exit.sink.split.i, %31, %28, %18, %10, %24, %17
  %.0 = phi ptr [ null, %18 ], [ null, %24 ], [ null, %17 ], [ null, %10 ], [ @_Py_TrueStruct, %28 ], [ @_Py_FalseStruct, %31 ], [ %_Py_FalseStruct.sink.i, %_Py_NewRef.exit.sink.split.i ]
  call void @llvm.lifetime.end.p0(i64 8, ptr nonnull %5) #5
  ret ptr %.0
}